target datalayout = "e-m:e-p270:32:32-p271:32:32-p272:64:64-i64:64-i128:128-f80:128-n8:16:32:64-S128"
target triple = "x86_64-pc-linux-gnu"

%struct.__va_list_tag = type { i32, i32, ptr, ptr }

; Function Attrs: nounwind uwtable
define internal i32 @imap_exec(ptr noundef %0, ptr noundef %1, ptr noundef %2, ...) #0 {
  %4 = alloca i32, align 4
  %5 = alloca ptr, align 8
  %6 = alloca ptr, align 8
  %7 = alloca ptr, align 8
  %8 = alloca [1 x %struct.__va_list_tag], align 16
  %9 = alloca ptr, align 8
  %10 = alloca i32, align 4
  store ptr %0, ptr %5, align 8, !tbaa !43
  store ptr %1, ptr %6, align 8, !tbaa !108
  store ptr %2, ptr %7, align 8, !tbaa !29
  call void @llvm.lifetime.start.p0(i64 24, ptr %8) #11
  call void @llvm.lifetime.start.p0(i64 8, ptr %9) #11
  %11 = getelementptr inbounds [1 x %struct.__va_list_tag], ptr %8, i64 0, i64 0
  call void @llvm.va_start.p0(ptr %11)
  %12 = load ptr, ptr %5, align 8, !tbaa !43
  %13 = load ptr, ptr %6, align 8, !tbaa !108
  %14 = load ptr, ptr %7, align 8, !tbaa !29
  %15 = getelementptr inbounds [1 x %struct.__va_list_tag], ptr %8, i64 0, i64 0
  %16 = call ptr @issue_imap_cmd(ptr noundef %12, ptr noundef %13, ptr noundef %14, ptr noundef %15)
  store ptr %16, ptr %9, align 8, !tbaa !114
  %17 = getelementptr inbounds [1 x %struct.__va_list_tag], ptr %8, i64 0, i64 0
  call void @llvm.va_end.p0(ptr %17)
  %18 = load ptr, ptr %9, align 8, !tbaa !114
  %19 = icmp ne ptr %18, null
  br i1 %19, label %21, label %20

20:                                               ; preds = %3
  store i32 2, ptr %4, align 4
  store i32 1, ptr %10, align 4
  br label %25

21:                                               ; preds = %3
  %22 = load ptr, ptr %5, align 8, !tbaa !43
  %23 = load ptr, ptr %9, align 8, !tbaa !114
  %24 = call i32 @get_cmd_result(ptr noundef %22, ptr noundef %23)
  store i32 %24, ptr %4, align 4
  store i32 1, ptr %10, align 4
  br label %25

25:                                               ; preds = %21, %20
  call void @llvm.lifetime.end.p0(i64 8, ptr %9) #11
  call void @llvm.lifetime.end.p0(i64 24, ptr %8) #11
  %26 = load i32, ptr %4, align 4
  ret i32 %26
}