; Function Attrs: nounwind uwtable
define internal range(i32 0, 3) i32 @imap_exec(ptr noundef %0, ptr noundef %1, ptr noundef %2, ...) unnamed_addr #0 {
  %4 = alloca [1 x %struct.__va_list_tag], align 16
  call void @llvm.lifetime.start.p0(i64 24, ptr nonnull %4) #22
  call void @llvm.va_start.p0(ptr nonnull %4)
  %5 = call fastcc ptr @issue_imap_cmd(ptr noundef %0, ptr noundef %1, ptr noundef %2, ptr noundef %4)
  call void @llvm.va_end.p0(ptr nonnull %4)
  %.not = icmp eq ptr %5, null
  br i1 %.not, label %8, label %6

6:                                                ; preds = %3
  %7 = call fastcc i32 @get_cmd_result(ptr noundef %0, ptr noundef nonnull %5)
  br label %8

8:                                                ; preds = %3, %6
  %.0 = phi i32 [ %7, %6 ], [ 2, %3 ]
  call void @llvm.lifetime.end.p0(i64 24, ptr nonnull %4) #22
  ret i32 %.0
}